target datalayout = "e-m:e-p270:32:32-p271:32:32-p272:64:64-i64:64-i128:128-f80:128-n8:16:32:64-S128"
target triple = "x86_64-pc-linux-gnu"

%"class.std::optional.320" = type { %"struct.std::_Optional_base.321" }
%"struct.std::_Optional_base.321" = type { %"struct.std::_Optional_payload.323" }
%"struct.std::_Optional_payload.323" = type { %"struct.std::_Optional_payload.base.327", [7 x i8] }
%"struct.std::_Optional_payload.base.327" = type { %"struct.std::_Optional_payload_base.base.326" }
%"struct.std::_Optional_payload_base.base.326" = type <{ %"union.std::_Optional_payload_base<std::__cxx11::basic_string<char>>::_Storage", i8 }>
%"union.std::_Optional_payload_base<std::__cxx11::basic_string<char>>::_Storage" = type { %"class.std::__cxx11::basic_string" }
%"class.std::__cxx11::basic_string" = type { %"struct.std::__cxx11::basic_string<char>::_Alloc_hider", i64, %union.anon }
%"struct.std::__cxx11::basic_string<char>::_Alloc_hider" = type { ptr }
%union.anon = type { i64, [8 x i8] }
%"struct.Luau::Type" = type { %"class.Luau::Variant.477", i8, [7 x i8], %"class.std::optional.320", ptr }
%"class.Luau::Variant.477" = type { i32, [4 x i8], [336 x i8] }
%"struct.Luau::TypeOnceVisitor.base" = type { %"struct.Luau::GenericTypeVisitor.base" }
%"struct.Luau::GenericTypeVisitor.base" = type <{ ptr, %"class.Luau::DenseHashSet.870", i8, [3 x i8], i32, i32 }>
%"class.Luau::DenseHashSet.870" = type { %"class.Luau::detail::DenseHashTable.871" }
%"class.Luau::detail::DenseHashTable.871" = type <{ ptr, i64, i64, ptr, [8 x i8] }>
%"struct.Luau::(anonymous namespace)::HasFreeType" = type { %"struct.Luau::TypeOnceVisitor.base", i8, [3 x i8] }

; Function Attrs: mustprogress nounwind uwtable
define internal noundef zeroext i1 @_ZN4Luau12_GLOBAL__N_111HasFreeType5visitEPKNS_4TypeE(ptr noundef nonnull align 8 dereferenceable(61) %0, ptr noundef %1) unnamed_addr #2 align 2 {
  %3 = alloca i1, align 1
  %4 = alloca ptr, align 8
  %5 = alloca ptr, align 8
  store ptr %0, ptr %4, align 8, !tbaa !2125
  store ptr %1, ptr %5, align 8, !tbaa !157
  %6 = load ptr, ptr %4, align 8
  %7 = getelementptr inbounds nuw %"struct.Luau::(anonymous namespace)::HasFreeType", ptr %6, i32 0, i32 1
  %8 = load i8, ptr %7, align 4, !tbaa !1161, !range !15, !noundef !16
  %9 = trunc i8 %8 to i1
  br i1 %9, label %15, label %10

10:                                               ; preds = %2
  %11 = load ptr, ptr %5, align 8, !tbaa !157
  %12 = getelementptr inbounds nuw %"struct.Luau::Type", ptr %11, i32 0, i32 1
  %13 = load i8, ptr %12, align 8, !tbaa !2127, !range !15, !noundef !16
  %14 = trunc i8 %13 to i1
  br i1 %14, label %15, label %16

15:                                               ; preds = %10, %2
  store i1 false, ptr %3, align 1
  br label %17

16:                                               ; preds = %10
  store i1 true, ptr %3, align 1
  br label %17

17:                                               ; preds = %16, %15
  %18 = load i1, ptr %3, align 1
  ret i1 %18
}