; Function Attrs: mustprogress nofree norecurse nosync nounwind willreturn memory(argmem: read) uwtable
define internal noundef zeroext i1 @_ZN4Luau12_GLOBAL__N_111HasFreeType5visitEPKNS_4TypeE(ptr noundef nonnull readonly align 8 captures(none) dereferenceable(61) %0, ptr noundef readonly captures(none) %1) unnamed_addr #18 align 2 {
  %3 = getelementptr inbounds nuw i8, ptr %0, i64 60
  %4 = load i8, ptr %3, align 4, !tbaa !806, !range !215, !noundef !216
  %5 = trunc nuw i8 %4 to i1
  br i1 %5, label %10, label %6

6:                                                ; preds = %2
  %7 = getelementptr inbounds nuw i8, ptr %1, i64 344
  %8 = load i8, ptr %7, align 8, !tbaa !312, !range !215, !noundef !216
  %9 = trunc nuw i8 %8 to i1
  %not. = xor i1 %9, true
  br label %10

10:                                               ; preds = %6, %2
  %.0 = phi i1 [ false, %2 ], [ %not., %6 ]
  ret i1 %.0
}